; Function Attrs: nounwind uwtable
define ptr @EVP_RAND_CTX_gettable_params(ptr noundef readonly captures(none) %0) local_unnamed_addr #0 {
  %2 = load ptr, ptr %0, align 8, !tbaa !3
  %3 = getelementptr inbounds nuw i8, ptr %2, i64 136
  %4 = load ptr, ptr %3, align 8, !tbaa !40
  %5 = icmp eq ptr %4, null
  br i1 %5, label %15, label %6

6:                                                ; preds = %1
  %7 = load ptr, ptr %2, align 8, !tbaa !23
  %8 = tail call ptr @ossl_provider_ctx(ptr noundef %7) #8
  %9 = load ptr, ptr %0, align 8, !tbaa !3
  %10 = getelementptr inbounds nuw i8, ptr %9, i64 136
  %11 = load ptr, ptr %10, align 8, !tbaa !40
  %12 = getelementptr inbounds nuw i8, ptr %0, i64 8
  %13 = load ptr, ptr %12, align 8, !tbaa !17
  %14 = tail call ptr %11(ptr noundef %13, ptr noundef %8) #8
  br label %15

15:                                               ; preds = %1, %6
  %.0 = phi ptr [ %14, %6 ], [ null, %1 ]
  ret ptr %.0
}